; Function Attrs: nounwind uwtable
define hidden zeroext i1 @SDL_UpdateWindowSurface_REAL(ptr noundef %0) local_unnamed_addr #0 {
  %2 = alloca %struct.SDL_Rect, align 4
  call void @llvm.lifetime.start.p0(i64 16, ptr nonnull %2) #19
  %3 = load ptr, ptr @_this, align 8
  %.not = icmp eq ptr %3, null
  br i1 %.not, label %4, label %6

4:                                                ; preds = %1
  %5 = tail call zeroext i1 (ptr, ...) @SDL_SetError_REAL(ptr noundef nonnull @.str.1) #19
  br label %SDL_UpdateWindowSurfaceRects_REAL.exit

6:                                                ; preds = %1
  %7 = tail call zeroext i1 @SDL_ObjectValid(ptr noundef %0, i32 noundef 1) #19
  br i1 %7, label %10, label %8

8:                                                ; preds = %6
  %9 = tail call zeroext i1 (ptr, ...) @SDL_SetError_REAL(ptr noundef nonnull @.str.20) #19
  br label %SDL_UpdateWindowSurfaceRects_REAL.exit

10:                                               ; preds = %6
  store i32 0, ptr %2, align 4
  %11 = getelementptr inbounds nuw i8, ptr %2, i64 4
  store i32 0, ptr %11, align 4
  %12 = getelementptr inbounds nuw i8, ptr %2, i64 8
  %13 = getelementptr inbounds nuw i8, ptr %2, i64 12
  %14 = call zeroext i1 @SDL_GetWindowSizeInPixels_REAL(ptr noundef %0, ptr noundef nonnull %12, ptr noundef nonnull %13)
  %15 = load ptr, ptr @_this, align 8
  %.not.i = icmp eq ptr %15, null
  br i1 %.not.i, label %16, label %18

16:                                               ; preds = %10
  %17 = call zeroext i1 (ptr, ...) @SDL_SetError_REAL(ptr noundef nonnull @.str.1) #19
  br label %SDL_UpdateWindowSurfaceRects_REAL.exit

18:                                               ; preds = %10
  %19 = call zeroext i1 @SDL_ObjectValid(ptr noundef %0, i32 noundef 1) #19
  br i1 %19, label %22, label %20

20:                                               ; preds = %18
  %21 = call zeroext i1 (ptr, ...) @SDL_SetError_REAL(ptr noundef nonnull @.str.20) #19
  br label %SDL_UpdateWindowSurfaceRects_REAL.exit

22:                                               ; preds = %18
  %23 = getelementptr inbounds nuw i8, ptr %0, i64 264
  %24 = load i8, ptr %23, align 8, !range !6, !noundef !7
  %25 = trunc nuw i8 %24 to i1
  br i1 %25, label %28, label %26

26:                                               ; preds = %22
  %27 = call zeroext i1 (ptr, ...) @SDL_SetError_REAL(ptr noundef nonnull @.str.55) #19
  br label %SDL_UpdateWindowSurfaceRects_REAL.exit

28:                                               ; preds = %22
  %29 = load ptr, ptr @_this, align 8
  %30 = getelementptr inbounds nuw i8, ptr %29, i64 336
  %31 = load ptr, ptr %30, align 8
  %32 = call zeroext i1 %31(ptr noundef %29, ptr noundef nonnull %0, ptr noundef nonnull %2, i32 noundef 1) #19
  br label %SDL_UpdateWindowSurfaceRects_REAL.exit

SDL_UpdateWindowSurfaceRects_REAL.exit:           ; preds = %28, %26, %20, %16, %8, %4
  %.0 = phi i1 [ false, %8 ], [ false, %4 ], [ %32, %28 ], [ %27, %26 ], [ false, %20 ], [ false, %16 ]
  call void @llvm.lifetime.end.p0(i64 16, ptr nonnull %2) #19
  ret i1 %.0
}